target datalayout = "e-m:e-p270:32:32-p271:32:32-p272:64:64-i64:64-i128:128-f80:128-n8:16:32:64-S128"
target triple = "x86_64-pc-linux-gnu"

; Function Attrs: mustprogress uwtable
define internal noundef signext i8 @_ZN6icu_77L5streqEPKDsS1_(ptr noundef %0, ptr noundef %1) #2 {
  %3 = alloca i8, align 1
  %4 = alloca ptr, align 8
  %5 = alloca ptr, align 8
  store ptr %0, ptr %4, align 8, !tbaa !16
  store ptr %1, ptr %5, align 8, !tbaa !16
  %6 = load ptr, ptr %5, align 8, !tbaa !16
  %7 = load ptr, ptr %4, align 8, !tbaa !16
  %8 = icmp eq ptr %6, %7
  br i1 %8, label %9, label %10

9:                                                ; preds = %2
  store i8 1, ptr %3, align 1
  br label %23

10:                                               ; preds = %2
  %11 = load ptr, ptr %4, align 8, !tbaa !16
  %12 = icmp ne ptr %11, null
  br i1 %12, label %13, label %22

13:                                               ; preds = %10
  %14 = load ptr, ptr %5, align 8, !tbaa !16
  %15 = icmp ne ptr %14, null
  br i1 %15, label %16, label %22

16:                                               ; preds = %13
  %17 = load ptr, ptr %4, align 8, !tbaa !16
  %18 = load ptr, ptr %5, align 8, !tbaa !16
  %19 = call i32 @u_strcmp_77(ptr noundef %17, ptr noundef %18)
  %20 = icmp eq i32 %19, 0
  %21 = zext i1 %20 to i8
  store i8 %21, ptr %3, align 1
  br label %23

22:                                               ; preds = %13, %10
  store i8 0, ptr %3, align 1
  br label %23

23:                                               ; preds = %22, %16, %9
  %24 = load i8, ptr %3, align 1
  ret i8 %24
}

; Function Attrs: mustprogress uwtable
define noundef i32 @_ZNK6icu_7716LocalizationInfo15indexForRuleSetEPKDs(ptr noundef nonnull align 8 dereferenceable(12) %0, ptr noundef %1) unnamed_addr #2 align 2 {
  %3 = alloca i32, align 4
  %4 = alloca ptr, align 8
  %5 = alloca ptr, align 8
  %6 = alloca i32, align 4
  %7 = alloca i32, align 4
  store ptr %0, ptr %4, align 8, !tbaa !8
  store ptr %1, ptr %5, align 8, !tbaa !16
  %8 = load ptr, ptr %4, align 8
  %9 = load ptr, ptr %5, align 8, !tbaa !16
  %10 = icmp ne ptr %9, null
  br i1 %10, label %11, label %38

11:                                               ; preds = %2
  call void @llvm.lifetime.start.p0(i64 4, ptr %6) #14
  store i32 0, ptr %6, align 4, !tbaa !12
  br label %12

12:                                               ; preds = %32, %11
  %13 = load i32, ptr %6, align 4, !tbaa !12
  %14 = load ptr, ptr %8, align 8, !tbaa !10
  %15 = getelementptr inbounds ptr, ptr %14, i64 3
  %16 = load ptr, ptr %15, align 8
  %17 = call noundef i32 %16(ptr noundef nonnull align 8 dereferenceable(12) %8)
  %18 = icmp slt i32 %13, %17
  br i1 %18, label %20, label %19

19:                                               ; preds = %12
  store i32 2, ptr %7, align 4
  br label %35

20:                                               ; preds = %12
  %21 = load ptr, ptr %5, align 8, !tbaa !16
  %22 = load i32, ptr %6, align 4, !tbaa !12
  %23 = load ptr, ptr %8, align 8, !tbaa !10
  %24 = getelementptr inbounds ptr, ptr %23, i64 4
  %25 = load ptr, ptr %24, align 8
  %26 = call noundef ptr %25(ptr noundef nonnull align 8 dereferenceable(12) %8, i32 noundef %22)
  %27 = call noundef signext i8 @_ZN6icu_77L5streqEPKDsS1_(ptr noundef %21, ptr noundef %26)
  %28 = icmp ne i8 %27, 0
  br i1 %28, label %29, label %31

29:                                               ; preds = %20
  %30 = load i32, ptr %6, align 4, !tbaa !12
  store i32 %30, ptr %3, align 4
  store i32 1, ptr %7, align 4
  br label %35

31:                                               ; preds = %20
  br label %32

32:                                               ; preds = %31
  %33 = load i32, ptr %6, align 4, !tbaa !12
  %34 = add nsw i32 %33, 1
  store i32 %34, ptr %6, align 4, !tbaa !12
  br label %12, !llvm.loop !21

35:                                               ; preds = %29, %19
  call void @llvm.lifetime.end.p0(i64 4, ptr %6) #14
  %36 = load i32, ptr %7, align 4
  switch i32 %36, label %41 [
    i32 2, label %37
    i32 1, label %39
  ]

37:                                               ; preds = %35
  br label %38

38:                                               ; preds = %37, %2
  store i32 -1, ptr %3, align 4
  br label %39

39:                                               ; preds = %38, %35
  %40 = load i32, ptr %3, align 4
  ret i32 %40

41:                                               ; preds = %35
  unreachable
}