; Function Attrs: mustprogress uwtable
define noundef range(i32 -2147483648, 2147483647) i32 @_ZNK6icu_7716LocalizationInfo15indexForRuleSetEPKDs(ptr noundef nonnull align 8 dereferenceable(12) %0, ptr noundef %1) unnamed_addr #3 align 2 {
  %.not = icmp eq ptr %1, null
  br i1 %.not, label %.thread, label %.preheader

.preheader:                                       ; preds = %2
  %3 = load ptr, ptr %0, align 8, !tbaa !3
  %4 = getelementptr inbounds nuw i8, ptr %3, i64 24
  %5 = load ptr, ptr %4, align 8
  %6 = tail call noundef i32 %5(ptr noundef nonnull align 8 dereferenceable(12) %0)
  %7 = icmp sgt i32 %6, 0
  br i1 %7, label %.lr.ph, label %.thread

.lr.ph:                                           ; preds = %.preheader, %_ZN6icu_77L5streqEPKDsS1_.exit.thread
  %.0822 = phi i32 [ %15, %_ZN6icu_77L5streqEPKDsS1_.exit.thread ], [ 0, %.preheader ]
  %8 = load ptr, ptr %0, align 8, !tbaa !3
  %9 = getelementptr inbounds nuw i8, ptr %8, i64 32
  %10 = load ptr, ptr %9, align 8
  %11 = tail call noundef ptr %10(ptr noundef nonnull align 8 dereferenceable(12) %0, i32 noundef %.0822)
  %12 = icmp eq ptr %11, %1
  br i1 %12, label %.thread, label %13

13:                                               ; preds = %.lr.ph
  %.not20 = icmp eq ptr %11, null
  br i1 %.not20, label %_ZN6icu_77L5streqEPKDsS1_.exit.thread, label %_ZN6icu_77L5streqEPKDsS1_.exit

_ZN6icu_77L5streqEPKDsS1_.exit:                   ; preds = %13
  %14 = tail call i32 @u_strcmp_77(ptr noundef nonnull %1, ptr noundef nonnull %11)
  %.not21 = icmp eq i32 %14, 0
  br i1 %.not21, label %.thread, label %_ZN6icu_77L5streqEPKDsS1_.exit.thread

_ZN6icu_77L5streqEPKDsS1_.exit.thread:            ; preds = %13, %_ZN6icu_77L5streqEPKDsS1_.exit
  %15 = add nuw nsw i32 %.0822, 1
  %16 = load ptr, ptr %0, align 8, !tbaa !3
  %17 = getelementptr inbounds nuw i8, ptr %16, i64 24
  %18 = load ptr, ptr %17, align 8
  %19 = tail call noundef i32 %18(ptr noundef nonnull align 8 dereferenceable(12) %0)
  %20 = icmp slt i32 %15, %19
  br i1 %20, label %.lr.ph, label %.thread, !llvm.loop !11

.thread:                                          ; preds = %_ZN6icu_77L5streqEPKDsS1_.exit, %.lr.ph, %_ZN6icu_77L5streqEPKDsS1_.exit.thread, %.preheader, %2
  %.1 = phi i32 [ -1, %2 ], [ -1, %.preheader ], [ %.0822, %_ZN6icu_77L5streqEPKDsS1_.exit ], [ %.0822, %.lr.ph ], [ -1, %_ZN6icu_77L5streqEPKDsS1_.exit.thread ]
  ret i32 %.1
}